target datalayout = "e-m:e-p270:32:32-p271:32:32-p272:64:64-i64:64-i128:128-f80:128-n8:16:32:64-S128"
target triple = "x86_64-pc-linux-gnu"

; Function Attrs: mustprogress nounwind sspstrong uwtable
define void @_ZN3tbb6detail2r111check_cpuidEiiPi(i32 noundef %0, i32 noundef %1, ptr noundef %2) #2 {
  %4 = alloca i32, align 4
  %5 = alloca i32, align 4
  %6 = alloca ptr, align 8
  %7 = alloca i32, align 4
  %8 = alloca i32, align 4
  %9 = alloca i32, align 4
  %10 = alloca i32, align 4
  store i32 %0, ptr %4, align 4, !tbaa !8
  store i32 %1, ptr %5, align 4, !tbaa !8
  store ptr %2, ptr %6, align 8, !tbaa !13
  call void @llvm.lifetime.start.p0(i64 4, ptr %7) #13
  store i32 0, ptr %7, align 4, !tbaa !8
  call void @llvm.lifetime.start.p0(i64 4, ptr %8) #13
  store i32 0, ptr %8, align 4, !tbaa !8
  call void @llvm.lifetime.start.p0(i64 4, ptr %9) #13
  store i32 0, ptr %9, align 4, !tbaa !8
  call void @llvm.lifetime.start.p0(i64 4, ptr %10) #13
  store i32 0, ptr %10, align 4, !tbaa !8
  %11 = load i32, ptr %4, align 4, !tbaa !8
  %12 = load i32, ptr %5, align 4, !tbaa !8
  %13 = call { i32, i32, i32, i32 } asm "cpuid", "={ax},={bx},={cx},={dx},0,2,~{dirflag},~{fpsr},~{flags}"(i32 %11, i32 %12) #15, !srcloc !32
  %14 = extractvalue { i32, i32, i32, i32 } %13, 0
  %15 = extractvalue { i32, i32, i32, i32 } %13, 1
  %16 = extractvalue { i32, i32, i32, i32 } %13, 2
  %17 = extractvalue { i32, i32, i32, i32 } %13, 3
  store i32 %14, ptr %7, align 4, !tbaa !8
  store i32 %15, ptr %8, align 4, !tbaa !8
  store i32 %16, ptr %9, align 4, !tbaa !8
  store i32 %17, ptr %10, align 4, !tbaa !8
  %18 = load i32, ptr %7, align 4, !tbaa !8
  %19 = load ptr, ptr %6, align 8, !tbaa !13
  %20 = getelementptr inbounds i32, ptr %19, i64 0
  store i32 %18, ptr %20, align 4, !tbaa !8
  %21 = load i32, ptr %8, align 4, !tbaa !8
  %22 = load ptr, ptr %6, align 8, !tbaa !13
  %23 = getelementptr inbounds i32, ptr %22, i64 1
  store i32 %21, ptr %23, align 4, !tbaa !8
  %24 = load i32, ptr %9, align 4, !tbaa !8
  %25 = load ptr, ptr %6, align 8, !tbaa !13
  %26 = getelementptr inbounds i32, ptr %25, i64 2
  store i32 %24, ptr %26, align 4, !tbaa !8
  %27 = load i32, ptr %10, align 4, !tbaa !8
  %28 = load ptr, ptr %6, align 8, !tbaa !13
  %29 = getelementptr inbounds i32, ptr %28, i64 3
  store i32 %27, ptr %29, align 4, !tbaa !8
  call void @llvm.lifetime.end.p0(i64 4, ptr %10) #13
  call void @llvm.lifetime.end.p0(i64 4, ptr %9) #13
  call void @llvm.lifetime.end.p0(i64 4, ptr %8) #13
  call void @llvm.lifetime.end.p0(i64 4, ptr %7) #13
  ret void
}