; Function Attrs: mustprogress nounwind sspstrong memory(argmem: write) uwtable
define void @_ZN3tbb6detail2r111check_cpuidEiiPi(i32 noundef %0, i32 noundef %1, ptr noundef writeonly captures(none) initializes((0, 16)) %2) local_unnamed_addr #6 {
  %4 = tail call { i32, i32, i32, i32 } asm "cpuid", "={ax},={bx},={cx},={dx},0,2,~{dirflag},~{fpsr},~{flags}"(i32 %0, i32 %1) #20, !srcloc !21
  %5 = extractvalue { i32, i32, i32, i32 } %4, 0
  %6 = extractvalue { i32, i32, i32, i32 } %4, 1
  %7 = extractvalue { i32, i32, i32, i32 } %4, 2
  %8 = extractvalue { i32, i32, i32, i32 } %4, 3
  store i32 %5, ptr %2, align 4, !tbaa !8
  %9 = getelementptr inbounds nuw i8, ptr %2, i64 4
  store i32 %6, ptr %9, align 4, !tbaa !8
  %10 = getelementptr inbounds nuw i8, ptr %2, i64 8
  store i32 %7, ptr %10, align 4, !tbaa !8
  %11 = getelementptr inbounds nuw i8, ptr %2, i64 12
  store i32 %8, ptr %11, align 4, !tbaa !8
  ret void
}